; Function Attrs: nounwind uwtable
define noalias nonnull ptr @l_Lake_BuildTrace_instCoeHash(i64 noundef %0) local_unnamed_addr #0 {
  %2 = load ptr, ptr @l_Lake_BuildTrace_instCoeHash___closed__1, align 8, !tbaa !9
  %3 = load ptr, ptr @l_Lake_BuildTrace_withoutInputs___closed__1, align 8, !tbaa !9
  %4 = load ptr, ptr @l_Lake_MTime_instOfNat___closed__2, align 8, !tbaa !9
  tail call void @lean_inc_heartbeat() #4
  %5 = tail call noalias ptr @mi_malloc_small(i64 noundef 16) #4
  %6 = icmp eq ptr %5, null
  br i1 %6, label %7, label %lean_box_uint64.exit

7:                                                ; preds = %1
  tail call void @lean_internal_panic_out_of_memory() #5
  unreachable

lean_box_uint64.exit:                             ; preds = %1
  %8 = getelementptr inbounds nuw i8, ptr %5, i64 4
  store i32 1, ptr %5, align 4, !tbaa !4
  store i32 16, ptr %8, align 4
  %9 = getelementptr inbounds nuw i8, ptr %5, i64 8
  store i64 %0, ptr %9, align 8, !tbaa !15
  tail call void @lean_inc_heartbeat() #4
  %10 = tail call noalias ptr @mi_malloc_small(i64 noundef 40) #4
  %11 = icmp eq ptr %10, null
  br i1 %11, label %12, label %lean_alloc_ctor.exit

12:                                               ; preds = %lean_box_uint64.exit
  tail call void @lean_internal_panic_out_of_memory() #5
  unreachable

lean_alloc_ctor.exit:                             ; preds = %lean_box_uint64.exit
  %13 = getelementptr inbounds nuw i8, ptr %10, i64 4
  store i32 1, ptr %10, align 4, !tbaa !4
  store i32 262184, ptr %13, align 4
  %14 = getelementptr inbounds nuw i8, ptr %10, i64 8
  store ptr %2, ptr %14, align 8, !tbaa !9
  %15 = getelementptr inbounds nuw i8, ptr %10, i64 16
  store ptr %3, ptr %15, align 8, !tbaa !9
  %16 = getelementptr inbounds nuw i8, ptr %10, i64 24
  store ptr %5, ptr %16, align 8, !tbaa !9
  %17 = getelementptr inbounds nuw i8, ptr %10, i64 32
  store ptr %4, ptr %17, align 8, !tbaa !9
  ret ptr %10
}